; Function Attrs: mustprogress uwtable
define noundef nonnull align 8 dereferenceable(64) ptr @_ZNK6icu_759LocaleKey6prefixERNS_13UnicodeStringE(ptr nocapture noundef nonnull readonly align 8 dereferenceable(272) %this, ptr noundef nonnull returned align 8 dereferenceable(64) %result) unnamed_addr #1 align 2 personality ptr @__gxx_personality_v0 {
entry:
  %buffer = alloca [64 x i16], align 16
  %temp = alloca %"class.icu_75::UnicodeString", align 8
  %_kind = getelementptr inbounds i8, ptr %this, i64 72
  %0 = load i32, ptr %_kind, align 8
  %cmp.not = icmp eq i32 %0, -1
  br i1 %cmp.not, label %if.end, label %if.then

if.then:                                          ; preds = %entry
  %call = call i32 @uprv_itou_75(ptr noundef nonnull %buffer, i32 noundef 64, i32 noundef %0, i32 noundef 10, i32 noundef 0)
  call void @_ZN6icu_7513UnicodeStringC1EPKDs(ptr noundef nonnull align 8 dereferenceable(64) %temp, ptr noundef nonnull %buffer)
  %fUnion.i.i.i = getelementptr inbounds i8, ptr %temp, i64 8
  %1 = load i16, ptr %fUnion.i.i.i, align 8
  %cmp.i.i.i = icmp slt i16 %1, 0
  %2 = ashr i16 %1, 5
  %shr.i.i.i = sext i16 %2 to i32
  %fLength.i.i = getelementptr inbounds i8, ptr %temp, i64 12
  %3 = load i32, ptr %fLength.i.i, align 4
  %cond.i.i = select i1 %cmp.i.i.i, i32 %3, i32 %shr.i.i.i
  %call2.i2 = invoke noundef nonnull align 8 dereferenceable(64) ptr @_ZN6icu_7513UnicodeString8doAppendERKS0_ii(ptr noundef nonnull align 8 dereferenceable(64) %result, ptr noundef nonnull align 8 dereferenceable(64) %temp, i32 noundef 0, i32 noundef %cond.i.i)
          to label %invoke.cont unwind label %lpad

invoke.cont:                                      ; preds = %if.then
  call void @_ZN6icu_7513UnicodeStringD1Ev(ptr noundef nonnull align 8 dereferenceable(64) %temp) #11
  br label %if.end

lpad:                                             ; preds = %if.then
  %4 = landingpad { ptr, i32 }
          cleanup
  call void @_ZN6icu_7513UnicodeStringD1Ev(ptr noundef nonnull align 8 dereferenceable(64) %temp) #11
  resume { ptr, i32 } %4

if.end:                                           ; preds = %invoke.cont, %entry
  ret ptr %result
}